; Function Attrs: mustprogress uwtable
define internal void @_ZL36tcp_drop_uncovered_then_handle_writePvN4absl12lts_202308026StatusE(ptr noundef %arg, ptr noundef %error) #6 personality ptr @__gxx_personality_v0 {
entry:
  %ref.tmp = alloca %"class.std::__cxx11::basic_string", align 8
  %agg.tmp = alloca %"class.absl::lts_20230802::Status", align 8
  %0 = load atomic i8, ptr getelementptr inbounds (%"class.grpc_core::TraceFlag", ptr @grpc_tcp_trace, i64 0, i32 2, i32 0, i32 0) monotonic, align 8
  %1 = and i8 %0, 1
  %tobool.i.i.i.not = icmp eq i8 %1, 0
  br i1 %tobool.i.i.i.not, label %if.end, label %if.then

if.then:                                          ; preds = %entry
  call void @_ZN9grpc_core14StatusToStringB5cxx11ERKN4absl12lts_202308026StatusE(ptr nonnull sret(%"class.std::__cxx11::basic_string") align 8 %ref.tmp, ptr noundef nonnull align 8 dereferenceable(8) %error)
  %call1 = call noundef ptr @_ZNKSt7__cxx1112basic_stringIcSt11char_traitsIcESaIcEE5c_strEv(ptr noundef nonnull align 8 dereferenceable(32) %ref.tmp) #24
  invoke void (ptr, i32, i32, ptr, ...) @gpr_log(ptr noundef nonnull @.str, i32 noundef 697, i32 noundef 1, ptr noundef nonnull @.str.58, ptr noundef %arg, ptr noundef %call1)
          to label %invoke.cont unwind label %lpad

invoke.cont:                                      ; preds = %if.then
  call void @_ZNSt7__cxx1112basic_stringIcSt11char_traitsIcESaIcEED1Ev(ptr noundef nonnull align 8 dereferenceable(32) %ref.tmp) #24
  br label %if.end

lpad:                                             ; preds = %if.then
  %2 = landingpad { ptr, i32 }
          cleanup
  call void @_ZNSt7__cxx1112basic_stringIcSt11char_traitsIcESaIcEED1Ev(ptr noundef nonnull align 8 dereferenceable(32) %ref.tmp) #24
  br label %eh.resume

if.end:                                           ; preds = %invoke.cont, %entry
  %3 = load ptr, ptr @_ZL18g_backup_poller_mu, align 8
  call void @_ZN4absl12lts_202308025Mutex4LockEv(ptr noundef nonnull align 8 dereferenceable(8) %3)
  %4 = load ptr, ptr @_ZL15g_backup_poller, align 8
  %5 = load i32, ptr @_ZL33g_uncovered_notifications_pending, align 4
  %dec.i = add nsw i32 %5, -1
  store i32 %dec.i, ptr @_ZL33g_uncovered_notifications_pending, align 4
  %6 = load ptr, ptr @_ZL18g_backup_poller_mu, align 8
  call void @_ZN4absl12lts_202308025Mutex6UnlockEv(ptr noundef nonnull align 8 dereferenceable(8) %6)
  %cmp.i = icmp slt i32 %5, 2
  br i1 %cmp.i, label %if.then.i, label %do.end.i

if.then.i:                                        ; preds = %if.end
  call void @gpr_assertion_failed(ptr noundef nonnull @.str, i32 noundef 633, ptr noundef nonnull @.str.59) #26
  unreachable

do.end.i:                                         ; preds = %if.end
  %7 = load atomic i8, ptr getelementptr inbounds (%"class.grpc_core::TraceFlag", ptr @grpc_tcp_trace, i64 0, i32 2, i32 0, i32 0) monotonic, align 8
  %8 = and i8 %7, 1
  %tobool.i.i.i.not.i = icmp eq i8 %8, 0
  br i1 %tobool.i.i.i.not.i, label %_ZL14drop_uncoveredPN12_GLOBAL__N_18grpc_tcpE.exit, label %if.then1.i

if.then1.i:                                       ; preds = %do.end.i
  call void (ptr, i32, i32, ptr, ...) @gpr_log(ptr noundef nonnull @.str, i32 noundef 635, i32 noundef 1, ptr noundef nonnull @.str.60, ptr noundef %4, i32 noundef %5, i32 noundef %dec.i)
  br label %_ZL14drop_uncoveredPN12_GLOBAL__N_18grpc_tcpE.exit

_ZL14drop_uncoveredPN12_GLOBAL__N_18grpc_tcpE.exit: ; preds = %do.end.i, %if.then1.i
  %9 = load i64, ptr %error, align 8
  store i64 %9, ptr %agg.tmp, align 8
  %and.i.i.i = and i64 %9, 1
  %cmp.i.i.i = icmp eq i64 %and.i.i.i, 0
  br i1 %cmp.i.i.i, label %_ZN4absl12lts_202308026StatusC2ERKS1_.exit, label %if.then.i.i

if.then.i.i:                                      ; preds = %_ZL14drop_uncoveredPN12_GLOBAL__N_18grpc_tcpE.exit
  %sub.i.i.i = add nsw i64 %9, -1
  %10 = inttoptr i64 %sub.i.i.i to ptr
  %11 = atomicrmw add ptr %10, i32 1 monotonic, align 4
  br label %_ZN4absl12lts_202308026StatusC2ERKS1_.exit

_ZN4absl12lts_202308026StatusC2ERKS1_.exit:       ; preds = %_ZL14drop_uncoveredPN12_GLOBAL__N_18grpc_tcpE.exit, %if.then.i.i
  invoke void @_ZL16tcp_handle_writePvN4absl12lts_202308026StatusE(ptr noundef %arg, ptr noundef nonnull %agg.tmp)
          to label %invoke.cont3 unwind label %lpad2

invoke.cont3:                                     ; preds = %_ZN4absl12lts_202308026StatusC2ERKS1_.exit
  %12 = load i64, ptr %agg.tmp, align 8
  %and.i.i.i4 = and i64 %12, 1
  %cmp.i.i.i5 = icmp eq i64 %and.i.i.i4, 0
  br i1 %cmp.i.i.i5, label %_ZN4absl12lts_202308026StatusD2Ev.exit, label %if.then.i.i6

if.then.i.i6:                                     ; preds = %invoke.cont3
  invoke void @_ZN4absl12lts_202308026Status15UnrefNonInlinedEm(i64 noundef %12)
          to label %_ZN4absl12lts_202308026StatusD2Ev.exit unwind label %terminate.lpad.i

terminate.lpad.i:                                 ; preds = %if.then.i.i6
  %13 = landingpad { ptr, i32 }
          catch ptr null
  %14 = extractvalue { ptr, i32 } %13, 0
  call void @__clang_call_terminate(ptr %14) #27
  unreachable

_ZN4absl12lts_202308026StatusD2Ev.exit:           ; preds = %invoke.cont3, %if.then.i.i6
  ret void

lpad2:                                            ; preds = %_ZN4absl12lts_202308026StatusC2ERKS1_.exit
  %15 = landingpad { ptr, i32 }
          cleanup
  call void @_ZN4absl12lts_202308026StatusD2Ev(ptr noundef nonnull align 8 dereferenceable(8) %agg.tmp) #24
  br label %eh.resume

eh.resume:                                        ; preds = %lpad2, %lpad
  %.pn = phi { ptr, i32 } [ %15, %lpad2 ], [ %2, %lpad ]
  resume { ptr, i32 } %.pn
}